target datalayout = "e-m:e-p270:32:32-p271:32:32-p272:64:64-i64:64-i128:128-f80:128-n8:16:32:64-S128"
target triple = "x86_64-pc-linux-gnu"

%struct.Abc_Ntk_t_ = type { i32, i32, ptr, ptr, ptr, ptr, ptr, ptr, ptr, ptr, ptr, ptr, ptr, [11 x i32], i32, i32, i32, i32, ptr, i32, ptr, ptr, i32, i32, i32, double, i32, %struct.Vec_Int_t_, ptr, ptr, ptr, ptr, ptr, float, i32, ptr, ptr, ptr, ptr, ptr, ptr, ptr, ptr, ptr, ptr, ptr, ptr, ptr, ptr, ptr, ptr, ptr, ptr, ptr, ptr, ptr, ptr }
%struct.Vec_Int_t_ = type { i32, i32, ptr }
%struct.Vec_Ptr_t_ = type { i32, i32, ptr }
%struct.Abc_Obj_t_ = type { ptr, ptr, i32, i32, %struct.Vec_Int_t_, %struct.Vec_Int_t_, %union.anon, %union.anon.0 }
%union.anon = type { ptr }
%union.anon.0 = type { ptr }

@.str.5 = private unnamed_addr constant [46 x i8] c"Abc_NtkStrash: The network check has failed.\0A\00", align 1

; Function Attrs: inlinehint nounwind uwtable
define internal i32 @Abc_ObjFaninC1(ptr noundef %0) #4 {
  %2 = alloca ptr, align 8
  store ptr %0, ptr %2, align 8, !tbaa !53
  %3 = load ptr, ptr %2, align 8, !tbaa !53
  %4 = getelementptr inbounds nuw %struct.Abc_Obj_t_, ptr %3, i32 0, i32 3
  %5 = load i32, ptr %4, align 4
  %6 = lshr i32 %5, 11
  %7 = and i32 %6, 1
  ret i32 %7
}

; Function Attrs: inlinehint nounwind uwtable
define internal ptr @Abc_ObjFanin1(ptr noundef %0) #4 {
  %2 = alloca ptr, align 8
  store ptr %0, ptr %2, align 8, !tbaa !53
  %3 = load ptr, ptr %2, align 8, !tbaa !53
  %4 = getelementptr inbounds nuw %struct.Abc_Obj_t_, ptr %3, i32 0, i32 0
  %5 = load ptr, ptr %4, align 8, !tbaa !83
  %6 = getelementptr inbounds nuw %struct.Abc_Ntk_t_, ptr %5, i32 0, i32 5
  %7 = load ptr, ptr %6, align 8, !tbaa !27
  %8 = getelementptr inbounds nuw %struct.Vec_Ptr_t_, ptr %7, i32 0, i32 2
  %9 = load ptr, ptr %8, align 8, !tbaa !46
  %10 = load ptr, ptr %2, align 8, !tbaa !53
  %11 = getelementptr inbounds nuw %struct.Abc_Obj_t_, ptr %10, i32 0, i32 4
  %12 = getelementptr inbounds nuw %struct.Vec_Int_t_, ptr %11, i32 0, i32 2
  %13 = load ptr, ptr %12, align 8, !tbaa !85
  %14 = getelementptr inbounds i32, ptr %13, i64 1
  %15 = load i32, ptr %14, align 4, !tbaa !3
  %16 = sext i32 %15 to i64
  %17 = getelementptr inbounds ptr, ptr %9, i64 %16
  %18 = load ptr, ptr %17, align 8, !tbaa !47
  ret ptr %18
}

; Function Attrs: inlinehint nounwind uwtable
define internal ptr @Abc_ObjNotCond(ptr noundef %0, i32 noundef %1) #4 {
  %3 = alloca ptr, align 8
  %4 = alloca i32, align 4
  store ptr %0, ptr %3, align 8, !tbaa !53
  store i32 %1, ptr %4, align 4, !tbaa !3
  %5 = load ptr, ptr %3, align 8, !tbaa !53
  %6 = ptrtoint ptr %5 to i64
  %7 = load i32, ptr %4, align 4, !tbaa !3
  %8 = icmp ne i32 %7, 0
  %9 = zext i1 %8 to i32
  %10 = sext i32 %9 to i64
  %11 = xor i64 %6, %10
  %12 = inttoptr i64 %11 to ptr
  ret ptr %12
}

; Function Attrs: inlinehint nounwind uwtable
define internal i32 @Abc_ObjFaninC0(ptr noundef %0) #4 {
  %2 = alloca ptr, align 8
  store ptr %0, ptr %2, align 8, !tbaa !53
  %3 = load ptr, ptr %2, align 8, !tbaa !53
  %4 = getelementptr inbounds nuw %struct.Abc_Obj_t_, ptr %3, i32 0, i32 3
  %5 = load i32, ptr %4, align 4
  %6 = lshr i32 %5, 10
  %7 = and i32 %6, 1
  ret i32 %7
}

; Function Attrs: inlinehint nounwind uwtable
define internal ptr @Abc_ObjFanin0(ptr noundef %0) #4 {
  %2 = alloca ptr, align 8
  store ptr %0, ptr %2, align 8, !tbaa !53
  %3 = load ptr, ptr %2, align 8, !tbaa !53
  %4 = getelementptr inbounds nuw %struct.Abc_Obj_t_, ptr %3, i32 0, i32 0
  %5 = load ptr, ptr %4, align 8, !tbaa !83
  %6 = getelementptr inbounds nuw %struct.Abc_Ntk_t_, ptr %5, i32 0, i32 5
  %7 = load ptr, ptr %6, align 8, !tbaa !27
  %8 = getelementptr inbounds nuw %struct.Vec_Ptr_t_, ptr %7, i32 0, i32 2
  %9 = load ptr, ptr %8, align 8, !tbaa !46
  %10 = load ptr, ptr %2, align 8, !tbaa !53
  %11 = getelementptr inbounds nuw %struct.Abc_Obj_t_, ptr %10, i32 0, i32 4
  %12 = getelementptr inbounds nuw %struct.Vec_Int_t_, ptr %11, i32 0, i32 2
  %13 = load ptr, ptr %12, align 8, !tbaa !85
  %14 = getelementptr inbounds i32, ptr %13, i64 0
  %15 = load i32, ptr %14, align 4, !tbaa !3
  %16 = sext i32 %15 to i64
  %17 = getelementptr inbounds ptr, ptr %9, i64 %16
  %18 = load ptr, ptr %17, align 8, !tbaa !47
  ret ptr %18
}

; Function Attrs: inlinehint nounwind uwtable
define internal ptr @Vec_PtrEntry(ptr noundef %0, i32 noundef %1) #4 {
  %3 = alloca ptr, align 8
  %4 = alloca i32, align 4
  store ptr %0, ptr %3, align 8, !tbaa !42
  store i32 %1, ptr %4, align 4, !tbaa !3
  %5 = load ptr, ptr %3, align 8, !tbaa !42
  %6 = getelementptr inbounds nuw %struct.Vec_Ptr_t_, ptr %5, i32 0, i32 2
  %7 = load ptr, ptr %6, align 8, !tbaa !46
  %8 = load i32, ptr %4, align 4, !tbaa !3
  %9 = sext i32 %8 to i64
  %10 = getelementptr inbounds ptr, ptr %7, i64 %9
  %11 = load ptr, ptr %10, align 8, !tbaa !47
  ret ptr %11
}

; Function Attrs: inlinehint nounwind uwtable
define internal ptr @Abc_ObjChild1Copy(ptr noundef %0) #4 {
  %2 = alloca ptr, align 8
  store ptr %0, ptr %2, align 8, !tbaa !53
  %3 = load ptr, ptr %2, align 8, !tbaa !53
  %4 = call ptr @Abc_ObjFanin1(ptr noundef %3)
  %5 = getelementptr inbounds nuw %struct.Abc_Obj_t_, ptr %4, i32 0, i32 7
  %6 = load ptr, ptr %5, align 8, !tbaa !52
  %7 = load ptr, ptr %2, align 8, !tbaa !53
  %8 = call i32 @Abc_ObjFaninC1(ptr noundef %7)
  %9 = call ptr @Abc_ObjNotCond(ptr noundef %6, i32 noundef %8)
  ret ptr %9
}

; Function Attrs: inlinehint nounwind uwtable
define internal ptr @Abc_ObjChild0Copy(ptr noundef %0) #4 {
  %2 = alloca ptr, align 8
  store ptr %0, ptr %2, align 8, !tbaa !53
  %3 = load ptr, ptr %2, align 8, !tbaa !53
  %4 = call ptr @Abc_ObjFanin0(ptr noundef %3)
  %5 = getelementptr inbounds nuw %struct.Abc_Obj_t_, ptr %4, i32 0, i32 7
  %6 = load ptr, ptr %5, align 8, !tbaa !52
  %7 = load ptr, ptr %2, align 8, !tbaa !53
  %8 = call i32 @Abc_ObjFaninC0(ptr noundef %7)
  %9 = call ptr @Abc_ObjNotCond(ptr noundef %6, i32 noundef %8)
  ret ptr %9
}

; Function Attrs: inlinehint nounwind uwtable
define internal i32 @Abc_ObjIsNode(ptr noundef %0) #4 {
  %2 = alloca ptr, align 8
  store ptr %0, ptr %2, align 8, !tbaa !53
  %3 = load ptr, ptr %2, align 8, !tbaa !53
  %4 = getelementptr inbounds nuw %struct.Abc_Obj_t_, ptr %3, i32 0, i32 3
  %5 = load i32, ptr %4, align 4
  %6 = and i32 %5, 15
  %7 = icmp eq i32 %6, 7
  %8 = zext i1 %7 to i32
  ret i32 %8
}

; Function Attrs: inlinehint nounwind uwtable
define internal ptr @Abc_NtkObj(ptr noundef %0, i32 noundef %1) #4 {
  %3 = alloca ptr, align 8
  %4 = alloca i32, align 4
  store ptr %0, ptr %3, align 8, !tbaa !7
  store i32 %1, ptr %4, align 4, !tbaa !3
  %5 = load ptr, ptr %3, align 8, !tbaa !7
  %6 = getelementptr inbounds nuw %struct.Abc_Ntk_t_, ptr %5, i32 0, i32 5
  %7 = load ptr, ptr %6, align 8, !tbaa !27
  %8 = load i32, ptr %4, align 4, !tbaa !3
  %9 = call ptr @Vec_PtrEntry(ptr noundef %7, i32 noundef %8)
  ret ptr %9
}

; Function Attrs: inlinehint nounwind uwtable
define internal i32 @Vec_PtrSize(ptr noundef %0) #4 {
  %2 = alloca ptr, align 8
  store ptr %0, ptr %2, align 8, !tbaa !42
  %3 = load ptr, ptr %2, align 8, !tbaa !42
  %4 = getelementptr inbounds nuw %struct.Vec_Ptr_t_, ptr %3, i32 0, i32 1
  %5 = load i32, ptr %4, align 4, !tbaa !43
  ret i32 %5
}

; Function Attrs: nounwind uwtable
define ptr @Abc_NtkRestrashWithLatches(ptr noundef %0, i32 noundef %1) #0 {
  %3 = alloca ptr, align 8
  %4 = alloca ptr, align 8
  %5 = alloca i32, align 4
  %6 = alloca ptr, align 8
  %7 = alloca ptr, align 8
  %8 = alloca i32, align 4
  %9 = alloca i32, align 4
  store ptr %0, ptr %4, align 8, !tbaa !7
  store i32 %1, ptr %5, align 4, !tbaa !3
  call void @llvm.lifetime.start.p0(i64 8, ptr %6) #11
  call void @llvm.lifetime.start.p0(i64 8, ptr %7) #11
  call void @llvm.lifetime.start.p0(i64 4, ptr %8) #11
  %10 = load ptr, ptr %4, align 8, !tbaa !7
  %11 = load i32, ptr %5, align 4, !tbaa !3
  %12 = call ptr @Abc_NtkStartFromWithLatches(ptr noundef %10, i32 noundef 3, i32 noundef 3, i32 noundef %11)
  store ptr %12, ptr %6, align 8, !tbaa !7
  store i32 0, ptr %8, align 4, !tbaa !3
  br label %13

13:                                               ; preds = %46, %2
  %14 = load i32, ptr %8, align 4, !tbaa !3
  %15 = load ptr, ptr %4, align 8, !tbaa !7
  %16 = getelementptr inbounds nuw %struct.Abc_Ntk_t_, ptr %15, i32 0, i32 5
  %17 = load ptr, ptr %16, align 8, !tbaa !27
  %18 = call i32 @Vec_PtrSize(ptr noundef %17)
  %19 = icmp slt i32 %14, %18
  br i1 %19, label %20, label %24

20:                                               ; preds = %13
  %21 = load ptr, ptr %4, align 8, !tbaa !7
  %22 = load i32, ptr %8, align 4, !tbaa !3
  %23 = call ptr @Abc_NtkObj(ptr noundef %21, i32 noundef %22)
  store ptr %23, ptr %7, align 8, !tbaa !53
  br label %24

24:                                               ; preds = %20, %13
  %25 = phi i1 [ false, %13 ], [ true, %20 ]
  br i1 %25, label %26, label %49

26:                                               ; preds = %24
  %27 = load ptr, ptr %7, align 8, !tbaa !53
  %28 = icmp eq ptr %27, null
  br i1 %28, label %33, label %29

29:                                               ; preds = %26
  %30 = load ptr, ptr %7, align 8, !tbaa !53
  %31 = call i32 @Abc_ObjIsNode(ptr noundef %30)
  %32 = icmp ne i32 %31, 0
  br i1 %32, label %34, label %33

33:                                               ; preds = %29, %26
  br label %45

34:                                               ; preds = %29
  %35 = load ptr, ptr %6, align 8, !tbaa !7
  %36 = getelementptr inbounds nuw %struct.Abc_Ntk_t_, ptr %35, i32 0, i32 30
  %37 = load ptr, ptr %36, align 8, !tbaa !38
  %38 = load ptr, ptr %7, align 8, !tbaa !53
  %39 = call ptr @Abc_ObjChild0Copy(ptr noundef %38)
  %40 = load ptr, ptr %7, align 8, !tbaa !53
  %41 = call ptr @Abc_ObjChild1Copy(ptr noundef %40)
  %42 = call ptr @Abc_AigAnd(ptr noundef %37, ptr noundef %39, ptr noundef %41)
  %43 = load ptr, ptr %7, align 8, !tbaa !53
  %44 = getelementptr inbounds nuw %struct.Abc_Obj_t_, ptr %43, i32 0, i32 7
  store ptr %42, ptr %44, align 8, !tbaa !52
  br label %45

45:                                               ; preds = %34, %33
  br label %46

46:                                               ; preds = %45
  %47 = load i32, ptr %8, align 4, !tbaa !3
  %48 = add nsw i32 %47, 1
  store i32 %48, ptr %8, align 4, !tbaa !3
  br label %13, !llvm.loop !114

49:                                               ; preds = %24
  %50 = load ptr, ptr %4, align 8, !tbaa !7
  %51 = load ptr, ptr %6, align 8, !tbaa !7
  call void @Abc_NtkFinalize(ptr noundef %50, ptr noundef %51)
  %52 = load ptr, ptr %6, align 8, !tbaa !7
  %53 = call i32 @Abc_NtkCheck(ptr noundef %52)
  %54 = icmp ne i32 %53, 0
  br i1 %54, label %58, label %55

55:                                               ; preds = %49
  %56 = call i32 (ptr, ...) @printf(ptr noundef @.str.5)
  %57 = load ptr, ptr %6, align 8, !tbaa !7
  call void @Abc_NtkDelete(ptr noundef %57)
  store ptr null, ptr %3, align 8
  store i32 1, ptr %9, align 4
  br label %60

58:                                               ; preds = %49
  %59 = load ptr, ptr %6, align 8, !tbaa !7
  store ptr %59, ptr %3, align 8
  store i32 1, ptr %9, align 4
  br label %60

60:                                               ; preds = %58, %55
  call void @llvm.lifetime.end.p0(i64 4, ptr %8) #11
  call void @llvm.lifetime.end.p0(i64 8, ptr %7) #11
  call void @llvm.lifetime.end.p0(i64 8, ptr %6) #11
  %61 = load ptr, ptr %3, align 8
  ret ptr %61
}