; Function Attrs: nounwind uwtable
define noundef ptr @Abc_NtkRestrashWithLatches(ptr noundef %0, i32 noundef %1) local_unnamed_addr #0 {
  %3 = tail call ptr @Abc_NtkStartFromWithLatches(ptr noundef %0, i32 noundef 3, i32 noundef 3, i32 noundef %1)
  %4 = getelementptr inbounds nuw i8, ptr %0, i64 32
  %5 = load ptr, ptr %4, align 8, !tbaa !29
  %6 = getelementptr i8, ptr %5, i64 4
  %.val30 = load i32, ptr %6, align 4, !tbaa !25
  %7 = icmp sgt i32 %.val30, 0
  br i1 %7, label %.lr.ph, label %.critedge

.lr.ph:                                           ; preds = %2
  %8 = getelementptr inbounds nuw i8, ptr %3, i64 256
  br label %9

9:                                                ; preds = %.lr.ph, %48
  %10 = phi ptr [ %5, %.lr.ph ], [ %49, %48 ]
  %indvars.iv = phi i64 [ 0, %.lr.ph ], [ %indvars.iv.next, %48 ]
  %11 = getelementptr i8, ptr %10, i64 8
  %.val21.val = load ptr, ptr %11, align 8, !tbaa !28
  %12 = getelementptr inbounds nuw ptr, ptr %.val21.val, i64 %indvars.iv
  %13 = load ptr, ptr %12, align 8, !tbaa !40
  %14 = icmp eq ptr %13, null
  br i1 %14, label %48, label %15

15:                                               ; preds = %9
  %16 = getelementptr i8, ptr %13, i64 20
  %.val22 = load i32, ptr %16, align 4
  %17 = and i32 %.val22, 15
  %.not29 = icmp eq i32 %17, 7
  br i1 %.not29, label %18, label %48

18:                                               ; preds = %15
  %19 = load ptr, ptr %8, align 8, !tbaa !41
  %.val.i = load ptr, ptr %13, align 8, !tbaa !75
  %20 = getelementptr i8, ptr %13, i64 32
  %.val2.i = load ptr, ptr %20, align 8, !tbaa !78
  %21 = getelementptr i8, ptr %.val.i, i64 32
  %.val.val.i = load ptr, ptr %21, align 8, !tbaa !29
  %.val2.val.i = load i32, ptr %.val2.i, align 4, !tbaa !57
  %22 = getelementptr i8, ptr %.val.val.i, i64 8
  %.val.val.val.i = load ptr, ptr %22, align 8, !tbaa !28
  %23 = sext i32 %.val2.val.i to i64
  %24 = getelementptr inbounds ptr, ptr %.val.val.val.i, i64 %23
  %25 = load ptr, ptr %24, align 8, !tbaa !40
  %26 = getelementptr inbounds nuw i8, ptr %25, i64 64
  %27 = load ptr, ptr %26, align 8, !tbaa !49
  %28 = lshr i32 %.val22, 10
  %29 = and i32 %28, 1
  %30 = ptrtoint ptr %27 to i64
  %31 = zext nneg i32 %29 to i64
  %32 = xor i64 %30, %31
  %33 = inttoptr i64 %32 to ptr
  %34 = getelementptr i8, ptr %.val2.i, i64 4
  %.val2.val.i26 = load i32, ptr %34, align 4, !tbaa !57
  %35 = sext i32 %.val2.val.i26 to i64
  %36 = getelementptr inbounds ptr, ptr %.val.val.val.i, i64 %35
  %37 = load ptr, ptr %36, align 8, !tbaa !40
  %38 = getelementptr inbounds nuw i8, ptr %37, i64 64
  %39 = load ptr, ptr %38, align 8, !tbaa !49
  %40 = lshr i32 %.val22, 11
  %41 = and i32 %40, 1
  %42 = ptrtoint ptr %39 to i64
  %43 = zext nneg i32 %41 to i64
  %44 = xor i64 %42, %43
  %45 = inttoptr i64 %44 to ptr
  %46 = tail call ptr @Abc_AigAnd(ptr noundef %19, ptr noundef %33, ptr noundef %45) #20
  %47 = getelementptr inbounds nuw i8, ptr %13, i64 64
  store ptr %46, ptr %47, align 8, !tbaa !49
  %.pre = load ptr, ptr %4, align 8, !tbaa !29
  br label %48

48:                                               ; preds = %18, %15, %9
  %49 = phi ptr [ %.pre, %18 ], [ %10, %15 ], [ %10, %9 ]
  %indvars.iv.next = add nuw nsw i64 %indvars.iv, 1
  %50 = getelementptr i8, ptr %49, i64 4
  %.val = load i32, ptr %50, align 4, !tbaa !25
  %51 = sext i32 %.val to i64
  %52 = icmp slt i64 %indvars.iv.next, %51
  br i1 %52, label %9, label %.critedge, !llvm.loop !110

.critedge:                                        ; preds = %48, %2
  tail call void @Abc_NtkFinalize(ptr noundef nonnull %0, ptr noundef %3)
  %53 = tail call i32 @Abc_NtkCheck(ptr noundef %3) #20
  %.not = icmp eq i32 %53, 0
  br i1 %.not, label %54, label %55

54:                                               ; preds = %.critedge
  %puts = tail call i32 @puts(ptr nonnull dereferenceable(1) @str)
  tail call void @Abc_NtkDelete(ptr noundef %3)
  br label %55

55:                                               ; preds = %.critedge, %54
  %.018 = phi ptr [ null, %54 ], [ %3, %.critedge ]
  ret ptr %.018
}